target datalayout = "e-m:e-p270:32:32-p271:32:32-p272:64:64-i64:64-i128:128-f80:128-n8:16:32:64-S128"
target triple = "x86_64-pc-linux-gnu"

%struct.RString = type { %struct.RBasic, i64, %union.anon }
%struct.RBasic = type { i64, i64 }
%union.anon = type { %struct.anon }
%struct.anon = type { ptr, %union.anon.0 }
%union.anon.0 = type { i64 }
%struct.OnigEncodingTypeST = type { ptr, ptr, i32, i32, ptr, ptr, ptr, ptr, ptr, ptr, ptr, ptr, ptr, ptr, ptr, ptr, ptr, i32, i32 }
%struct.fstr_update_arg = type { i64, i8, i8 }

@rb_cString = dso_local global i64 0, align 8
@.str.3 = private unnamed_addr constant [12 x i8] c"../string.c\00", align 1
@.str.5 = private unnamed_addr constant [1 x i8] zeroinitializer, align 1
@ruby_single_main_ractor = external global ptr, align 8
@__func__.setup_fake_str = private unnamed_addr constant [15 x i8] c"setup_fake_str\00", align 1
@.str.194 = private unnamed_addr constant [9 x i8] c"len == 0\00", align 1

; Function Attrs: inlinehint nounwind sspstrong memory(argmem: readwrite, inaccessiblemem: readwrite) uwtable
define internal void @rbimpl_fl_set_raw_raw(ptr noundef %0, i64 noundef %1) #5 {
  %3 = alloca ptr, align 8
  %4 = alloca i64, align 8
  store ptr %0, ptr %3, align 8, !tbaa !185
  store i64 %1, ptr %4, align 8, !tbaa !7
  %5 = load i64, ptr %4, align 8, !tbaa !7
  %6 = load ptr, ptr %3, align 8, !tbaa !185
  %7 = getelementptr inbounds nuw %struct.RBasic, ptr %6, i32 0, i32 0
  %8 = load i64, ptr %7, align 8, !tbaa !23
  %9 = or i64 %8, %5
  store i64 %9, ptr %7, align 8, !tbaa !23
  ret void
}

; Function Attrs: inlinehint nounwind sspstrong memory(argmem: readwrite, inaccessiblemem: readwrite) uwtable
define internal void @rbimpl_fl_unset_raw_raw(ptr noundef %0, i64 noundef %1) #5 {
  %3 = alloca ptr, align 8
  %4 = alloca i64, align 8
  store ptr %0, ptr %3, align 8, !tbaa !185
  store i64 %1, ptr %4, align 8, !tbaa !7
  %5 = load i64, ptr %4, align 8, !tbaa !7
  %6 = xor i64 %5, -1
  %7 = load ptr, ptr %3, align 8, !tbaa !185
  %8 = getelementptr inbounds nuw %struct.RBasic, ptr %7, i32 0, i32 0
  %9 = load i64, ptr %8, align 8, !tbaa !23
  %10 = and i64 %9, %6
  store i64 %10, ptr %8, align 8, !tbaa !23
  ret void
}

; Function Attrs: inlinehint nounwind sspstrong uwtable
define internal void @RB_FL_SET_RAW(i64 noundef %0, i64 noundef %1) #3 {
  %3 = alloca i64, align 8
  %4 = alloca i64, align 8
  store i64 %0, ptr %3, align 8, !tbaa !7
  store i64 %1, ptr %4, align 8, !tbaa !7
  %5 = load i64, ptr %3, align 8, !tbaa !7
  %6 = inttoptr i64 %5 to ptr
  %7 = load i64, ptr %4, align 8, !tbaa !7
  call void @rbimpl_fl_set_raw_raw(ptr noundef %6, i64 noundef %7) #30
  ret void
}

; Function Attrs: inlinehint nounwind sspstrong uwtable
define internal void @RB_FL_UNSET_RAW(i64 noundef %0, i64 noundef %1) #3 {
  %3 = alloca i64, align 8
  %4 = alloca i64, align 8
  store i64 %0, ptr %3, align 8, !tbaa !7
  store i64 %1, ptr %4, align 8, !tbaa !7
  %5 = load i64, ptr %3, align 8, !tbaa !7
  %6 = inttoptr i64 %5 to ptr
  %7 = load i64, ptr %4, align 8, !tbaa !7
  call void @rbimpl_fl_unset_raw_raw(ptr noundef %6, i64 noundef %7) #30
  ret void
}

; Function Attrs: inlinehint nounwind sspstrong uwtable
define internal zeroext i1 @rb_multi_ractor_p() #3 {
  %1 = alloca i1, align 1
  %2 = load ptr, ptr @ruby_single_main_ractor, align 8, !tbaa !182
  %3 = icmp ne ptr %2, null
  %4 = xor i1 %3, true
  %5 = xor i1 %4, true
  %6 = zext i1 %5 to i32
  %7 = sext i32 %6 to i64
  %8 = call i64 @llvm.expect.i64(i64 %7, i64 1)
  %9 = icmp ne i64 %8, 0
  br i1 %9, label %10, label %11

10:                                               ; preds = %0
  store i1 false, ptr %1, align 1
  br label %12

11:                                               ; preds = %0
  store i1 true, ptr %1, align 1
  br label %12

12:                                               ; preds = %11, %10
  %13 = load i1, ptr %1, align 1
  ret i1 %13
}

; Function Attrs: inlinehint nounwind sspstrong uwtable
define internal void @RBASIC_SET_CLASS_RAW(i64 noundef %0, i64 noundef %1) #3 {
  %3 = alloca i64, align 8
  %4 = alloca i64, align 8
  %5 = alloca ptr, align 8
  store i64 %0, ptr %3, align 8, !tbaa !7
  store i64 %1, ptr %4, align 8, !tbaa !7
  call void @llvm.lifetime.start.p0(i64 8, ptr %5) #29
  %6 = load i64, ptr %3, align 8, !tbaa !7
  %7 = inttoptr i64 %6 to ptr
  %8 = getelementptr inbounds nuw %struct.RBasic, ptr %7, i32 0, i32 1
  store ptr %8, ptr %5, align 8, !tbaa !47
  %9 = load i64, ptr %4, align 8, !tbaa !7
  %10 = load ptr, ptr %5, align 8, !tbaa !47
  store i64 %9, ptr %10, align 8, !tbaa !7
  call void @llvm.lifetime.end.p0(i64 8, ptr %5) #29
  ret void
}

; Function Attrs: inlinehint nounwind sspstrong uwtable
define internal void @RB_ENCODING_SET_INLINED(i64 noundef %0, i32 noundef %1) #3 {
  %3 = alloca i64, align 8
  %4 = alloca i32, align 4
  %5 = alloca i64, align 8
  store i64 %0, ptr %3, align 8, !tbaa !7
  store i32 %1, ptr %4, align 4, !tbaa !22
  call void @llvm.lifetime.start.p0(i64 8, ptr %5) #29
  %6 = load i32, ptr %4, align 4, !tbaa !22
  %7 = sext i32 %6 to i64
  store i64 %7, ptr %5, align 8, !tbaa !7
  %8 = load i64, ptr %5, align 8, !tbaa !7
  %9 = shl i64 %8, 22
  store i64 %9, ptr %5, align 8, !tbaa !7
  %10 = load i64, ptr %3, align 8, !tbaa !7
  call void @RB_FL_UNSET_RAW(i64 noundef %10, i64 noundef 532676608)
  %11 = load i64, ptr %3, align 8, !tbaa !7
  %12 = load i64, ptr %5, align 8, !tbaa !7
  call void @RB_FL_SET_RAW(i64 noundef %11, i64 noundef %12)
  call void @llvm.lifetime.end.p0(i64 8, ptr %5) #29
  ret void
}

; Function Attrs: inlinehint nounwind sspstrong uwtable
define internal void @rb_vm_lock_leave(ptr noundef %0, ptr noundef %1, i32 noundef %2) #3 {
  %4 = alloca ptr, align 8
  %5 = alloca ptr, align 8
  %6 = alloca i32, align 4
  store ptr %0, ptr %4, align 8, !tbaa !44
  store ptr %1, ptr %5, align 8, !tbaa !24
  store i32 %2, ptr %6, align 4, !tbaa !22
  %7 = call zeroext i1 @rb_multi_ractor_p()
  br i1 %7, label %8, label %10

8:                                                ; preds = %3
  %9 = load ptr, ptr %4, align 8, !tbaa !44
  call void @rb_vm_lock_leave_body(ptr noundef %9)
  br label %10

10:                                               ; preds = %8, %3
  ret void
}

; Function Attrs: inlinehint nounwind sspstrong willreturn memory(none) uwtable
define internal zeroext i1 @RB_UNDEF_P(i64 noundef %0) #12 {
  %2 = alloca i64, align 8
  store i64 %0, ptr %2, align 8, !tbaa !7
  %3 = load i64, ptr %2, align 8, !tbaa !7
  %4 = icmp eq i64 %3, 36
  ret i1 %4
}

; Function Attrs: inlinehint nounwind sspstrong uwtable
define internal void @rb_vm_lock_enter(ptr noundef %0, ptr noundef %1, i32 noundef %2) #3 {
  %4 = alloca ptr, align 8
  %5 = alloca ptr, align 8
  %6 = alloca i32, align 4
  store ptr %0, ptr %4, align 8, !tbaa !44
  store ptr %1, ptr %5, align 8, !tbaa !24
  store i32 %2, ptr %6, align 4, !tbaa !22
  %7 = call zeroext i1 @rb_multi_ractor_p()
  br i1 %7, label %8, label %10

8:                                                ; preds = %3
  %9 = load ptr, ptr %4, align 8, !tbaa !44
  call void @rb_vm_lock_enter_body(ptr noundef %9)
  br label %10

10:                                               ; preds = %8, %3
  ret void
}

; Function Attrs: inlinehint nounwind sspstrong willreturn memory(read) uwtable
define internal i64 @RB_FL_TEST_RAW(i64 noundef %0, i64 noundef %1) #1 {
  %3 = alloca i64, align 8
  %4 = alloca i64, align 8
  store i64 %0, ptr %3, align 8, !tbaa !7
  store i64 %1, ptr %4, align 8, !tbaa !7
  %5 = load i64, ptr %3, align 8, !tbaa !7
  %6 = inttoptr i64 %5 to ptr
  %7 = getelementptr inbounds nuw %struct.RBasic, ptr %6, i32 0, i32 0
  %8 = load i64, ptr %7, align 8, !tbaa !23
  %9 = load i64, ptr %4, align 8, !tbaa !7
  %10 = and i64 %8, %9
  ret i64 %10
}

; Function Attrs: nounwind sspstrong uwtable
define internal i64 @setup_fake_str(ptr noundef %0, ptr noundef %1, i64 noundef %2, i32 noundef %3) #0 {
  %5 = alloca ptr, align 8
  %6 = alloca ptr, align 8
  %7 = alloca i64, align 8
  %8 = alloca i32, align 4
  store ptr %0, ptr %5, align 8, !tbaa !41
  store ptr %1, ptr %6, align 8, !tbaa !24
  store i64 %2, ptr %7, align 8, !tbaa !7
  store i32 %3, ptr %8, align 4, !tbaa !22
  %9 = load ptr, ptr %5, align 8, !tbaa !41
  %10 = getelementptr inbounds nuw %struct.RString, ptr %9, i32 0, i32 0
  %11 = getelementptr inbounds nuw %struct.RBasic, ptr %10, i32 0, i32 0
  store i64 3221233669, ptr %11, align 8, !tbaa !43
  %12 = load ptr, ptr %6, align 8, !tbaa !24
  %13 = icmp ne ptr %12, null
  br i1 %13, label %27, label %14

14:                                               ; preds = %4
  %15 = load i64, ptr %7, align 8, !tbaa !7
  %16 = icmp eq i64 %15, 0
  %17 = xor i1 %16, true
  %18 = xor i1 %17, true
  %19 = zext i1 %18 to i32
  %20 = sext i32 %19 to i64
  %21 = call i64 @llvm.expect.i64(i64 %20, i64 1)
  %22 = icmp ne i64 %21, 0
  br i1 %22, label %23, label %24

23:                                               ; preds = %14
  br label %26

24:                                               ; preds = %14
  call void @rb_assert_failure(ptr noundef @.str.3, i32 noundef 578, ptr noundef @__func__.setup_fake_str, ptr noundef @.str.194) #32
  unreachable

25:                                               ; No predecessors!
  br label %26

26:                                               ; preds = %25, %23
  store ptr @.str.5, ptr %6, align 8, !tbaa !24
  br label %27

27:                                               ; preds = %26, %4
  %28 = load ptr, ptr %5, align 8, !tbaa !41
  %29 = ptrtoint ptr %28 to i64
  %30 = load i32, ptr %8, align 4, !tbaa !22
  call void @RB_ENCODING_SET_INLINED(i64 noundef %29, i32 noundef %30)
  %31 = load ptr, ptr %5, align 8, !tbaa !41
  %32 = ptrtoint ptr %31 to i64
  %33 = load i64, ptr @rb_cString, align 8, !tbaa !7
  call void @RBASIC_SET_CLASS_RAW(i64 noundef %32, i64 noundef %33)
  %34 = load i64, ptr %7, align 8, !tbaa !7
  %35 = load ptr, ptr %5, align 8, !tbaa !41
  %36 = getelementptr inbounds nuw %struct.RString, ptr %35, i32 0, i32 1
  store i64 %34, ptr %36, align 8, !tbaa !11
  %37 = load ptr, ptr %6, align 8, !tbaa !24
  %38 = load ptr, ptr %5, align 8, !tbaa !41
  %39 = getelementptr inbounds nuw %struct.RString, ptr %38, i32 0, i32 2
  %40 = getelementptr inbounds nuw %struct.anon, ptr %39, i32 0, i32 0
  store ptr %37, ptr %40, align 8, !tbaa !14
  %41 = load i64, ptr %7, align 8, !tbaa !7
  %42 = load ptr, ptr %5, align 8, !tbaa !41
  %43 = getelementptr inbounds nuw %struct.RString, ptr %42, i32 0, i32 2
  %44 = getelementptr inbounds nuw %struct.anon, ptr %43, i32 0, i32 1
  store i64 %41, ptr %44, align 8, !tbaa !14
  %45 = load ptr, ptr %5, align 8, !tbaa !41
  %46 = ptrtoint ptr %45 to i64
  ret i64 %46
}

; Function Attrs: nounwind sspstrong uwtable
define internal i64 @register_fstring(i64 noundef %0, i1 noundef zeroext %1, i1 noundef zeroext %2) #0 {
  %4 = alloca i64, align 8
  %5 = alloca i8, align 1
  %6 = alloca i8, align 1
  %7 = alloca %struct.fstr_update_arg, align 8
  %8 = alloca i32, align 4
  %9 = alloca ptr, align 8
  store i64 %0, ptr %4, align 8, !tbaa !7
  %10 = zext i1 %1 to i8
  store i8 %10, ptr %5, align 1, !tbaa !29
  %11 = zext i1 %2 to i8
  store i8 %11, ptr %6, align 1, !tbaa !29
  call void @llvm.lifetime.start.p0(i64 16, ptr %7) #29
  %12 = getelementptr inbounds nuw %struct.fstr_update_arg, ptr %7, i32 0, i32 0
  store i64 0, ptr %12, align 8, !tbaa !31
  %13 = getelementptr inbounds nuw %struct.fstr_update_arg, ptr %7, i32 0, i32 1
  %14 = load i8, ptr %5, align 1, !tbaa !29, !range !33, !noundef !34
  %15 = trunc i8 %14 to i1
  %16 = zext i1 %15 to i8
  store i8 %16, ptr %13, align 8, !tbaa !35
  %17 = getelementptr inbounds nuw %struct.fstr_update_arg, ptr %7, i32 0, i32 2
  %18 = load i8, ptr %6, align 1, !tbaa !29, !range !33, !noundef !34
  %19 = trunc i8 %18 to i1
  %20 = zext i1 %19 to i8
  store i8 %20, ptr %17, align 1, !tbaa !36
  %21 = getelementptr i8, ptr %7, i64 10
  call void @llvm.memset.p0.i64(ptr align 2 %21, i8 0, i64 6, i1 false)
  %22 = load i64, ptr %4, align 8, !tbaa !7
  %23 = call i64 @RB_FL_TEST_RAW(i64 noundef %22, i64 noundef 2147483648) #28
  %24 = icmp ne i64 %23, 0
  br i1 %24, label %25, label %32

25:                                               ; preds = %3
  %26 = load i64, ptr %4, align 8, !tbaa !7
  %27 = call i64 @str_do_hash(i64 noundef %26)
  %28 = load i64, ptr %4, align 8, !tbaa !7
  %29 = inttoptr i64 %28 to ptr
  %30 = getelementptr inbounds nuw %struct.RString, ptr %29, i32 0, i32 2
  %31 = getelementptr inbounds nuw %struct.anon, ptr %30, i32 0, i32 1
  store i64 %27, ptr %31, align 8, !tbaa !14
  br label %32

32:                                               ; preds = %25, %3
  call void @llvm.lifetime.start.p0(i64 4, ptr %8) #29
  call void @rb_vm_lock_enter(ptr noundef %8, ptr noundef @.str.3, i32 noundef 554)
  call void @llvm.lifetime.start.p0(i64 8, ptr %9) #29
  %33 = call ptr @rb_vm_fstring_table() #28
  store ptr %33, ptr %9, align 8, !tbaa !37
  br label %34

34:                                               ; preds = %41, %32
  %35 = load i64, ptr %4, align 8, !tbaa !7
  %36 = getelementptr inbounds nuw %struct.fstr_update_arg, ptr %7, i32 0, i32 0
  store i64 %35, ptr %36, align 8, !tbaa !31
  %37 = load ptr, ptr %9, align 8, !tbaa !37
  %38 = load i64, ptr %4, align 8, !tbaa !7
  %39 = ptrtoint ptr %7 to i64
  %40 = call i32 @rb_st_update(ptr noundef %37, i64 noundef %38, ptr noundef @fstr_update_callback, i64 noundef %39)
  br label %41

41:                                               ; preds = %34
  %42 = getelementptr inbounds nuw %struct.fstr_update_arg, ptr %7, i32 0, i32 0
  %43 = load i64, ptr %42, align 8, !tbaa !31
  %44 = call zeroext i1 @RB_UNDEF_P(i64 noundef %43) #35
  br i1 %44, label %34, label %45, !llvm.loop !39

45:                                               ; preds = %41
  call void @llvm.lifetime.end.p0(i64 8, ptr %9) #29
  call void @rb_vm_lock_leave(ptr noundef %8, ptr noundef @.str.3, i32 noundef 562)
  call void @llvm.lifetime.end.p0(i64 4, ptr %8) #29
  %46 = getelementptr inbounds nuw %struct.fstr_update_arg, ptr %7, i32 0, i32 0
  %47 = load i64, ptr %46, align 8, !tbaa !31
  call void @llvm.lifetime.end.p0(i64 16, ptr %7) #29
  ret i64 %47
}

; Function Attrs: nounwind sspstrong uwtable
define dso_local i64 @rb_setup_fake_str(ptr noundef %0, ptr noundef %1, i64 noundef %2, ptr noundef %3) #0 {
  %5 = alloca ptr, align 8
  %6 = alloca ptr, align 8
  %7 = alloca i64, align 8
  %8 = alloca ptr, align 8
  store ptr %0, ptr %5, align 8, !tbaa !41
  store ptr %1, ptr %6, align 8, !tbaa !24
  store i64 %2, ptr %7, align 8, !tbaa !7
  store ptr %3, ptr %8, align 8, !tbaa !15
  %9 = load ptr, ptr %5, align 8, !tbaa !41
  %10 = load ptr, ptr %6, align 8, !tbaa !24
  %11 = load i64, ptr %7, align 8, !tbaa !7
  %12 = load ptr, ptr %8, align 8, !tbaa !15
  %13 = call i32 @rb_enc_to_index(ptr noundef %12) #28
  %14 = call i64 @setup_fake_str(ptr noundef %9, ptr noundef %10, i64 noundef %11, i32 noundef %13)
  ret i64 %14
}

; Function Attrs: inlinehint nounwind sspstrong uwtable
define internal i32 @rb_enc_mbmaxlen(ptr noundef %0) #3 {
  %2 = alloca ptr, align 8
  store ptr %0, ptr %2, align 8, !tbaa !15
  %3 = load ptr, ptr %2, align 8, !tbaa !15
  %4 = getelementptr inbounds nuw %struct.OnigEncodingTypeST, ptr %3, i32 0, i32 2
  %5 = load i32, ptr %4, align 8, !tbaa !82
  ret i32 %5
}

; Function Attrs: nounwind sspstrong uwtable
define dso_local i64 @rb_enc_interned_str(ptr noundef %0, i64 noundef %1, ptr noundef %2) #0 {
  %4 = alloca ptr, align 8
  %5 = alloca i64, align 8
  %6 = alloca ptr, align 8
  %7 = alloca %struct.RString, align 8
  store ptr %0, ptr %4, align 8, !tbaa !24
  store i64 %1, ptr %5, align 8, !tbaa !7
  store ptr %2, ptr %6, align 8, !tbaa !15
  %8 = load ptr, ptr %6, align 8, !tbaa !15
  %9 = icmp ne ptr %8, null
  br i1 %9, label %10, label %24

10:                                               ; preds = %3
  %11 = load ptr, ptr %6, align 8, !tbaa !15
  %12 = call i32 @rb_enc_mbmaxlen(ptr noundef %11)
  %13 = icmp ne i32 %12, 0
  %14 = xor i1 %13, true
  %15 = xor i1 %14, true
  %16 = xor i1 %15, true
  %17 = zext i1 %16 to i32
  %18 = sext i32 %17 to i64
  %19 = call i64 @llvm.expect.i64(i64 %18, i64 0)
  %20 = icmp ne i64 %19, 0
  br i1 %20, label %21, label %24

21:                                               ; preds = %10
  %22 = load ptr, ptr %6, align 8, !tbaa !15
  %23 = call i32 @rb_enc_autoload(ptr noundef %22)
  br label %24

24:                                               ; preds = %21, %10, %3
  call void @llvm.lifetime.start.p0(i64 40, ptr %7) #29
  %25 = load ptr, ptr %4, align 8, !tbaa !24
  %26 = load i64, ptr %5, align 8, !tbaa !7
  %27 = load ptr, ptr %6, align 8, !tbaa !15
  %28 = call i64 @rb_setup_fake_str(ptr noundef %7, ptr noundef %25, i64 noundef %26, ptr noundef %27)
  %29 = call i64 @register_fstring(i64 noundef %28, i1 noundef zeroext true, i1 noundef zeroext false)
  call void @llvm.lifetime.end.p0(i64 40, ptr %7) #29
  ret i64 %29
}