; Function Attrs: nounwind sspstrong uwtable
define dso_local i64 @rb_enc_interned_str(ptr noundef %0, i64 noundef %1, ptr noundef %2) local_unnamed_addr #1 {
  %4 = alloca %struct.fstr_update_arg, align 8
  %5 = alloca i32, align 4
  %6 = alloca %struct.RString, align 8
  %.not = icmp eq ptr %2, null
  br i1 %.not, label %11, label %7

7:                                                ; preds = %3
  %8 = getelementptr i8, ptr %2, i64 16
  %.val = load i32, ptr %8, align 8, !tbaa !133
  %.not5 = icmp eq i32 %.val, 0
  br i1 %.not5, label %9, label %11, !prof !41

9:                                                ; preds = %7
  %10 = tail call i32 @rb_enc_autoload(ptr noundef nonnull %2) #29
  br label %11

11:                                               ; preds = %9, %7, %3
  call void @llvm.lifetime.start.p0(i64 40, ptr nonnull %6) #29
  %12 = tail call i32 @rb_enc_to_index(ptr noundef %2) #31
  %.not.i.i = icmp eq ptr %0, null
  br i1 %.not.i.i, label %13, label %16

13:                                               ; preds = %11
  %14 = icmp eq i64 %1, 0
  br i1 %14, label %16, label %15, !prof !40

15:                                               ; preds = %13
  tail call void @rb_assert_failure(ptr noundef nonnull @.str.3, i32 noundef 578, ptr noundef nonnull @__func__.setup_fake_str, ptr noundef nonnull @.str.194) #30
  unreachable

16:                                               ; preds = %11, %13
  %.0.i.i = phi ptr [ %0, %11 ], [ @.str.5, %13 ]
  %17 = ptrtoint ptr %6 to i64
  %18 = sext i32 %12 to i64
  %19 = shl nsw i64 %18, 22
  %20 = or i64 %19, 3221233669
  store i64 %20, ptr %6, align 8, !tbaa !7
  %21 = load i64, ptr @rb_cString, align 8, !tbaa !26
  %22 = getelementptr inbounds nuw i8, ptr %6, i64 8
  store i64 %21, ptr %22, align 8, !tbaa !26
  %23 = getelementptr inbounds nuw i8, ptr %6, i64 16
  store i64 %1, ptr %23, align 8, !tbaa !12
  %24 = getelementptr inbounds nuw i8, ptr %6, i64 24
  store ptr %.0.i.i, ptr %24, align 8, !tbaa !19
  %25 = getelementptr inbounds nuw i8, ptr %6, i64 32
  store i64 %1, ptr %25, align 8, !tbaa !19
  call void @llvm.lifetime.start.p0(i64 16, ptr nonnull %4) #29
  %26 = getelementptr inbounds nuw i8, ptr %4, i64 8
  store i8 1, ptr %26, align 8, !tbaa !526
  %27 = getelementptr inbounds nuw i8, ptr %4, i64 9
  call void @llvm.memset.p0.i64(ptr noundef nonnull align 1 dereferenceable(7) %27, i8 0, i64 7, i1 false)
  %28 = call fastcc i64 @str_do_hash(i64 noundef %17)
  store i64 %28, ptr %25, align 8, !tbaa !19
  call void @llvm.lifetime.start.p0(i64 4, ptr nonnull %5) #29
  %29 = load ptr, ptr @ruby_single_main_ractor, align 8, !tbaa !33
  %.not.i.i.i = icmp eq ptr %29, null
  br i1 %.not.i.i.i, label %30, label %rb_vm_lock_enter.exit.i

30:                                               ; preds = %16
  call void @rb_vm_lock_enter_body(ptr noundef nonnull %5) #29
  br label %rb_vm_lock_enter.exit.i

rb_vm_lock_enter.exit.i:                          ; preds = %30, %16
  %31 = call ptr @rb_vm_fstring_table() #31
  %32 = ptrtoint ptr %4 to i64
  br label %33

33:                                               ; preds = %33, %rb_vm_lock_enter.exit.i
  store i64 %17, ptr %4, align 8, !tbaa !35
  %34 = call i32 @rb_st_update(ptr noundef %31, i64 noundef %17, ptr noundef nonnull @fstr_update_callback, i64 noundef %32) #29
  %35 = load i64, ptr %4, align 8, !tbaa !35
  %36 = icmp eq i64 %35, 36
  br i1 %36, label %33, label %37, !llvm.loop !38

37:                                               ; preds = %33
  %38 = load ptr, ptr @ruby_single_main_ractor, align 8, !tbaa !33
  %.not.i.i7.i = icmp eq ptr %38, null
  br i1 %.not.i.i7.i, label %39, label %register_fstring.exit

39:                                               ; preds = %37
  call void @rb_vm_lock_leave_body(ptr noundef nonnull %5) #29
  %.pre.i = load i64, ptr %4, align 8, !tbaa !35
  br label %register_fstring.exit

register_fstring.exit:                            ; preds = %37, %39
  %40 = phi i64 [ %35, %37 ], [ %.pre.i, %39 ]
  call void @llvm.lifetime.end.p0(i64 4, ptr nonnull %5) #29
  call void @llvm.lifetime.end.p0(i64 16, ptr nonnull %4) #29
  call void @llvm.lifetime.end.p0(i64 40, ptr nonnull %6) #29
  ret i64 %40
}